target datalayout = "e-m:e-p270:32:32-p271:32:32-p272:64:64-i64:64-i128:128-f80:128-n8:16:32:64-S128"
target triple = "x86_64-pc-linux-gnu"

%class.cmCursesWidget = type <{ ptr, i32, [4 x i8], %"class.std::__cxx11::basic_string", ptr, i32, [4 x i8] }>
%"class.std::__cxx11::basic_string" = type { %"struct.std::__cxx11::basic_string<char>::_Alloc_hider", i64, %union.anon }
%"struct.std::__cxx11::basic_string<char>::_Alloc_hider" = type { ptr }
%union.anon = type { i64, [8 x i8] }
%struct._win_st = type { i16, i16, i16, i16, i16, i16, i16, i32, i32, i8, i8, i8, i8, i8, i8, i8, i8, i8, i32, ptr, i16, i16, i32, i32, ptr, %"struct._win_st::pdat", i16, %struct.cchar_t, i32 }
%"struct._win_st::pdat" = type { i16, i16, i16, i16, i16, i16 }
%struct.cchar_t = type { i32, [5 x i32], i32 }

@.str = private unnamed_addr constant [3 x i8] c"ON\00", align 1

; Function Attrs: mustprogress nounwind uwtable
define linkonce_odr dso_local noundef zeroext i1 @_ZSteqIcSt11char_traitsIcESaIcEEbRKNSt7__cxx1112basic_stringIT_T0_T1_EEPKS5_(ptr noundef nonnull align 8 dereferenceable(32) %0, ptr noundef %1) #3 comdat {
  %3 = alloca ptr, align 8
  %4 = alloca ptr, align 8
  store ptr %0, ptr %3, align 8
  store ptr %1, ptr %4, align 8
  %5 = load ptr, ptr %3, align 8
  %6 = load ptr, ptr %4, align 8
  %7 = call noundef i32 @_ZNKSt7__cxx1112basic_stringIcSt11char_traitsIcESaIcEE7compareEPKc(ptr noundef nonnull align 8 dereferenceable(32) %5, ptr noundef %6) #7
  %8 = icmp eq i32 %7, 0
  ret i1 %8
}

; Function Attrs: mustprogress uwtable
define dso_local noundef zeroext i1 @_ZN18cmCursesBoolWidget14GetValueAsBoolEv(ptr noundef nonnull align 8 dereferenceable(60) %0) #0 align 2 {
  %2 = alloca ptr, align 8
  store ptr %0, ptr %2, align 8
  %3 = load ptr, ptr %2, align 8
  %4 = getelementptr inbounds %class.cmCursesWidget, ptr %3, i32 0, i32 3
  %5 = call noundef zeroext i1 @_ZSteqIcSt11char_traitsIcESaIcEEbRKNSt7__cxx1112basic_stringIT_T0_T1_EEPKS5_(ptr noundef nonnull align 8 dereferenceable(32) %4, ptr noundef @.str)
  ret i1 %5
}

; Function Attrs: mustprogress uwtable
define dso_local noundef zeroext i1 @_ZN18cmCursesBoolWidget11HandleInputERiP16cmCursesMainFormP7_win_st(ptr noundef nonnull align 8 dereferenceable(60) %0, ptr noundef nonnull align 4 dereferenceable(4) %1, ptr noundef %2, ptr noundef %3) unnamed_addr #0 align 2 {
  %5 = alloca i1, align 1
  %6 = alloca ptr, align 8
  %7 = alloca ptr, align 8
  %8 = alloca ptr, align 8
  %9 = alloca ptr, align 8
  store ptr %0, ptr %6, align 8
  store ptr %1, ptr %7, align 8
  store ptr %2, ptr %8, align 8
  store ptr %3, ptr %9, align 8
  %10 = load ptr, ptr %6, align 8
  %11 = load ptr, ptr %7, align 8
  %12 = load i32, ptr %11, align 4
  %13 = icmp eq i32 %12, 10
  br i1 %13, label %22, label %14

14:                                               ; preds = %4
  %15 = load ptr, ptr %7, align 8
  %16 = load i32, ptr %15, align 4
  %17 = icmp eq i32 %16, 343
  br i1 %17, label %22, label %18

18:                                               ; preds = %14
  %19 = load ptr, ptr %7, align 8
  %20 = load i32, ptr %19, align 4
  %21 = icmp eq i32 %20, 32
  br i1 %21, label %22, label %42

22:                                               ; preds = %18, %14, %4
  %23 = call noundef zeroext i1 @_ZN18cmCursesBoolWidget14GetValueAsBoolEv(ptr noundef nonnull align 8 dereferenceable(60) %10)
  br i1 %23, label %24, label %25

24:                                               ; preds = %22
  call void @_ZN18cmCursesBoolWidget14SetValueAsBoolEb(ptr noundef nonnull align 8 dereferenceable(60) %10, i1 noundef zeroext false)
  br label %26

25:                                               ; preds = %22
  call void @_ZN18cmCursesBoolWidget14SetValueAsBoolEb(ptr noundef nonnull align 8 dereferenceable(60) %10, i1 noundef zeroext true)
  br label %26

26:                                               ; preds = %25, %24
  %27 = load ptr, ptr %9, align 8
  %28 = load ptr, ptr %9, align 8
  %29 = icmp ne ptr null, %28
  br i1 %29, label %30, label %36

30:                                               ; preds = %26
  %31 = load ptr, ptr %9, align 8
  %32 = getelementptr inbounds %struct._win_st, ptr %31, i32 0, i32 2
  %33 = load i16, ptr %32, align 4
  %34 = sext i16 %33 to i32
  %35 = add nsw i32 %34, 1
  br label %37

36:                                               ; preds = %26
  br label %37

37:                                               ; preds = %36, %30
  %38 = phi i32 [ %35, %30 ], [ -1, %36 ]
  %39 = call i32 @wtouchln(ptr noundef %27, i32 noundef 0, i32 noundef %38, i32 noundef 1)
  %40 = load ptr, ptr %9, align 8
  %41 = call i32 @wrefresh(ptr noundef %40)
  store i1 true, ptr %5, align 1
  br label %43

42:                                               ; preds = %18
  store i1 false, ptr %5, align 1
  br label %43

43:                                               ; preds = %42, %37
  %44 = load i1, ptr %5, align 1
  ret i1 %44
}