; Function Attrs: mustprogress uwtable
define dso_local noundef zeroext i1 @_ZN18cmCursesBoolWidget11HandleInputERiP16cmCursesMainFormP7_win_st(ptr noundef nonnull align 8 dereferenceable(60) %0, ptr nocapture noundef nonnull readonly align 4 dereferenceable(4) %1, ptr nocapture readnone %2, ptr noundef %3) unnamed_addr #0 align 2 {
  %5 = load i32, ptr %1, align 4
  switch i32 %5, label %19 [
    i32 10, label %6
    i32 343, label %6
    i32 32, label %6
  ]

6:                                                ; preds = %4, %4, %4
  %7 = getelementptr inbounds i8, ptr %0, i64 16
  %8 = tail call noundef i32 @_ZNKSt7__cxx1112basic_stringIcSt11char_traitsIcESaIcEE7compareEPKc(ptr noundef nonnull align 8 dereferenceable(32) %7, ptr noundef nonnull @.str) #6
  %9 = icmp ne i32 %8, 0
  tail call void @_ZN18cmCursesBoolWidget14SetValueAsBoolEb(ptr noundef nonnull align 8 dereferenceable(60) %0, i1 noundef zeroext %9)
  %.not = icmp eq ptr %3, null
  br i1 %.not, label %15, label %10

10:                                               ; preds = %6
  %11 = getelementptr inbounds i8, ptr %3, i64 4
  %12 = load i16, ptr %11, align 4
  %13 = sext i16 %12 to i32
  %14 = add nsw i32 %13, 1
  br label %15

15:                                               ; preds = %6, %10
  %16 = phi i32 [ %14, %10 ], [ -1, %6 ]
  %17 = tail call i32 @wtouchln(ptr noundef %3, i32 noundef 0, i32 noundef %16, i32 noundef 1)
  %18 = tail call i32 @wrefresh(ptr noundef %3)
  br label %19

19:                                               ; preds = %4, %15
  %.0 = phi i1 [ true, %15 ], [ false, %4 ]
  ret i1 %.0
}